target datalayout = "e-m:e-p270:32:32-p271:32:32-p272:64:64-i64:64-i128:128-f80:128-n8:16:32:64-S128"
target triple = "x86_64-pc-linux-gnu"

; Function Attrs: nounwind uwtable
define internal ptr @Pack6BytesSwap(ptr noundef %0, ptr noundef %1, ptr noundef %2, i32 noundef %3) #0 {
  %5 = alloca ptr, align 8
  %6 = alloca ptr, align 8
  %7 = alloca ptr, align 8
  %8 = alloca i32, align 4
  store ptr %0, ptr %5, align 8
  store ptr %1, ptr %6, align 8
  store ptr %2, ptr %7, align 8
  store i32 %3, ptr %8, align 4
  %9 = load ptr, ptr %6, align 8
  %10 = getelementptr inbounds i16, ptr %9, i64 5
  %11 = load i16, ptr %10, align 2
  %12 = zext i16 %11 to i32
  %13 = mul i32 %12, 65281
  %14 = add i32 %13, 8388608
  %15 = lshr i32 %14, 24
  %16 = and i32 %15, 255
  %17 = trunc i32 %16 to i8
  %18 = load ptr, ptr %7, align 8
  %19 = getelementptr inbounds i8, ptr %18, i32 1
  store ptr %19, ptr %7, align 8
  store i8 %17, ptr %18, align 1
  %20 = load ptr, ptr %6, align 8
  %21 = getelementptr inbounds i16, ptr %20, i64 4
  %22 = load i16, ptr %21, align 2
  %23 = zext i16 %22 to i32
  %24 = mul i32 %23, 65281
  %25 = add i32 %24, 8388608
  %26 = lshr i32 %25, 24
  %27 = and i32 %26, 255
  %28 = trunc i32 %27 to i8
  %29 = load ptr, ptr %7, align 8
  %30 = getelementptr inbounds i8, ptr %29, i32 1
  store ptr %30, ptr %7, align 8
  store i8 %28, ptr %29, align 1
  %31 = load ptr, ptr %6, align 8
  %32 = getelementptr inbounds i16, ptr %31, i64 3
  %33 = load i16, ptr %32, align 2
  %34 = zext i16 %33 to i32
  %35 = mul i32 %34, 65281
  %36 = add i32 %35, 8388608
  %37 = lshr i32 %36, 24
  %38 = and i32 %37, 255
  %39 = trunc i32 %38 to i8
  %40 = load ptr, ptr %7, align 8
  %41 = getelementptr inbounds i8, ptr %40, i32 1
  store ptr %41, ptr %7, align 8
  store i8 %39, ptr %40, align 1
  %42 = load ptr, ptr %6, align 8
  %43 = getelementptr inbounds i16, ptr %42, i64 2
  %44 = load i16, ptr %43, align 2
  %45 = zext i16 %44 to i32
  %46 = mul i32 %45, 65281
  %47 = add i32 %46, 8388608
  %48 = lshr i32 %47, 24
  %49 = and i32 %48, 255
  %50 = trunc i32 %49 to i8
  %51 = load ptr, ptr %7, align 8
  %52 = getelementptr inbounds i8, ptr %51, i32 1
  store ptr %52, ptr %7, align 8
  store i8 %50, ptr %51, align 1
  %53 = load ptr, ptr %6, align 8
  %54 = getelementptr inbounds i16, ptr %53, i64 1
  %55 = load i16, ptr %54, align 2
  %56 = zext i16 %55 to i32
  %57 = mul i32 %56, 65281
  %58 = add i32 %57, 8388608
  %59 = lshr i32 %58, 24
  %60 = and i32 %59, 255
  %61 = trunc i32 %60 to i8
  %62 = load ptr, ptr %7, align 8
  %63 = getelementptr inbounds i8, ptr %62, i32 1
  store ptr %63, ptr %7, align 8
  store i8 %61, ptr %62, align 1
  %64 = load ptr, ptr %6, align 8
  %65 = getelementptr inbounds i16, ptr %64, i64 0
  %66 = load i16, ptr %65, align 2
  %67 = zext i16 %66 to i32
  %68 = mul i32 %67, 65281
  %69 = add i32 %68, 8388608
  %70 = lshr i32 %69, 24
  %71 = and i32 %70, 255
  %72 = trunc i32 %71 to i8
  %73 = load ptr, ptr %7, align 8
  %74 = getelementptr inbounds i8, ptr %73, i32 1
  store ptr %74, ptr %7, align 8
  store i8 %72, ptr %73, align 1
  %75 = load ptr, ptr %7, align 8
  ret ptr %75
}