; Function Attrs: mustprogress nofree norecurse nosync nounwind willreturn memory(argmem: readwrite) uwtable
define internal nonnull ptr @Pack6BytesSwap(ptr nocapture readnone %0, ptr nocapture noundef readonly %1, ptr noundef writeonly %2, i32 %3) #3 {
  %5 = getelementptr inbounds i8, ptr %1, i64 10
  %6 = load i16, ptr %5, align 2
  %7 = zext i16 %6 to i32
  %8 = mul nuw i32 %7, 65281
  %9 = add nuw i32 %8, 8388608
  %10 = lshr i32 %9, 24
  %11 = trunc nuw i32 %10 to i8
  %12 = getelementptr inbounds i8, ptr %2, i64 1
  store i8 %11, ptr %2, align 1
  %13 = getelementptr inbounds i8, ptr %1, i64 8
  %14 = load i16, ptr %13, align 2
  %15 = zext i16 %14 to i32
  %16 = mul nuw i32 %15, 65281
  %17 = add nuw i32 %16, 8388608
  %18 = lshr i32 %17, 24
  %19 = trunc nuw i32 %18 to i8
  %20 = getelementptr inbounds i8, ptr %2, i64 2
  store i8 %19, ptr %12, align 1
  %21 = getelementptr inbounds i8, ptr %1, i64 6
  %22 = load i16, ptr %21, align 2
  %23 = zext i16 %22 to i32
  %24 = mul nuw i32 %23, 65281
  %25 = add nuw i32 %24, 8388608
  %26 = lshr i32 %25, 24
  %27 = trunc nuw i32 %26 to i8
  %28 = getelementptr inbounds i8, ptr %2, i64 3
  store i8 %27, ptr %20, align 1
  %29 = getelementptr inbounds i8, ptr %1, i64 4
  %30 = load i16, ptr %29, align 2
  %31 = zext i16 %30 to i32
  %32 = mul nuw i32 %31, 65281
  %33 = add nuw i32 %32, 8388608
  %34 = lshr i32 %33, 24
  %35 = trunc nuw i32 %34 to i8
  %36 = getelementptr inbounds i8, ptr %2, i64 4
  store i8 %35, ptr %28, align 1
  %37 = getelementptr inbounds i8, ptr %1, i64 2
  %38 = load i16, ptr %37, align 2
  %39 = zext i16 %38 to i32
  %40 = mul nuw i32 %39, 65281
  %41 = add nuw i32 %40, 8388608
  %42 = lshr i32 %41, 24
  %43 = trunc nuw i32 %42 to i8
  %44 = getelementptr inbounds i8, ptr %2, i64 5
  store i8 %43, ptr %36, align 1
  %45 = load i16, ptr %1, align 2
  %46 = zext i16 %45 to i32
  %47 = mul nuw i32 %46, 65281
  %48 = add nuw i32 %47, 8388608
  %49 = lshr i32 %48, 24
  %50 = trunc nuw i32 %49 to i8
  %51 = getelementptr inbounds i8, ptr %2, i64 6
  store i8 %50, ptr %44, align 1
  ret ptr %51
}